(lp0
(F0.735428389425629
I26767
I26137
F-0.09999999999999999
F0.4940458188416755
(lp1
I10891
aI1569
aF0.42387246802521267
I39583
tp2
a(F0.7422804899085734
I26595
I27028
F-0.04999999999999999
F0.5040374466180557
(lp3
I9965
aI1987
aF0.4424704536789935
I37348
tp4
a(F0.7508043082948664
I27246
I29859
F1.3877787807814457e-17
F0.5228789072760704
(lp5
I8327
aI2362
aF0.47527804820485586
I32504
tp6
a(F0.7584763176821124
I28079
I32988
F0.05000000000000002
F0.5401935578954263
(lp7
I6611
aI2792
aF0.507733787427274
I27229
tp8
a(F0.7554340578743832
I27833
I34671
F0.10000000000000002
F0.5547004991680532
(lp9
I5744
aI3426
aF0.5315316572257722
I24045
tp10
a(F0.7498520312079634
I27245
I35584
F0.15000000000000002
F0.5663626669213261
(lp11
I5204
aI4094
aF0.5501129951335838
I21924
tp12
a(F0.7428848283499446
I26874
I37005
F0.2
F0.579298360963697
(lp13
I4509
aI4778
aF0.5710712626083153
I19124
tp14
a.