(lp0
(F0.744909713653794
I98863
I105810
F-0.09999999999999999
F0.5169709732109267
(lp1
I43670
aI6155
aF0.4399445182280411
I167567
tp2
a(F0.7499582977126296
I98598
I109562
F-0.04999999999999999
F0.5263355111452729
(lp3
I39966
aI8001
aF0.45900276034935794
I158265
tp4
a(F0.7544774606321386
I101020
I121420
F1.3877787807814457e-17
F0.5458550620392015
(lp5
I33822
aI9772
aF0.4931399745897141
I138492
tp6
a(F0.7595479538768974
I104454
I134408
F0.05000000000000002
F0.5627014761661545
(lp7
I27119
aI11626
aF0.5260458129658114
I116947
tp8
a(F0.7566786581643917
I104179
I141819
F0.10000000000000002
F0.5765046870299758
(lp9
I23225
aI14246
aF0.5505540288356046
I103022
tp10
a(F0.7499359416576328
I102277
I145514
F0.15000000000000002
F0.5872448959001739
(lp11
I20913
aI17148
aF0.5690427214082812
I94113
tp12
a(F0.7405205622779185
I101349
I151460
F0.2
F0.5991084178174036
(lp13
I17987
aI20205
aF0.589912062157862
I82184
tp14
a.